Certificate:
    Data:
        Version: 3 (0x2)
        Serial Number:
            08:92:a2:71:cf:3c:b2:68:f0:30:e0:fd:d4:8a:3e:a8
    Signature Algorithm: sha256WithRSAEncryption
        Issuer: CN=slav-client-vpn
        Validity
            Not Before: Nov 18 06:53:27 2019 GMT
            Not After : Nov  2 06:53:27 2022 GMT
        Subject: CN=server
        Subject Public Key Info:
            Public Key Algorithm: rsaEncryption
                Public-Key: (2048 bit)
                Modulus:
                    00:cc:89:77:88:33:dd:ce:13:c9:1d:13:9c:d1:3f:
                    93:ce:20:68:39:6b:8f:2f:c3:de:99:99:16:54:aa:
                    7b:c9:97:db:67:c6:94:29:06:2d:0d:c0:ce:ee:d8:
                    ad:5f:28:fe:6a:d9:71:23:d4:06:a5:57:b9:73:b2:
                    54:92:f6:cc:15:4d:b9:02:85:ad:4d:39:6d:97:04:
                    0f:82:53:71:56:8f:0f:9f:5e:dd:10:87:12:0b:1e:
                    00:04:d9:2c:5d:67:40:1f:49:e3:6b:57:1e:16:15:
                    8a:82:55:d6:0d:c6:1b:49:8c:e8:81:d6:1f:3b:42:
                    84:8c:2c:4e:b5:00:e7:37:15:a1:9f:5d:14:bb:b1:
                    5c:89:e5:d4:e5:b3:bd:4c:ff:7b:bf:1f:d3:11:1e:
                    59:03:fb:06:9d:1b:be:89:c7:94:ad:62:44:60:42:
                    d3:98:eb:ca:ec:06:95:67:04:1e:70:cc:69:6e:63:
                    4f:22:8a:31:3e:84:b8:35:68:1a:d2:82:65:2c:a8:
                    b1:bb:30:59:4a:3c:cc:e3:c8:e7:d2:d8:60:1e:08:
                    4f:b8:b9:2d:1e:5a:20:bf:61:3e:71:7f:5b:87:fb:
                    04:c6:f1:9e:3b:af:5d:ba:14:bf:6d:0e:73:85:3d:
                    4a:8a:7b:36:72:a3:bd:a6:dc:a6:90:ba:65:45:ce:
                    28:d1
                Exponent: 65537 (0x10001)
        X509v3 extensions:
            X509v3 Basic Constraints: 
                CA:FALSE
            X509v3 Subject Key Identifier: 
                C9:81:DD:6F:D6:49:DA:9F:BA:A5:51:CA:74:05:A3:F3:0C:64:8A:3F
            X509v3 Authority Key Identifier: 
                keyid:AD:5E:5B:23:94:38:54:2E:0F:C9:0B:86:1B:F7:1C:E7:B4:D2:F3:05
                DirName:/CN=slav-client-vpn
                serial:A3:5B:5A:7B:5C:99:01:1E

            X509v3 Extended Key Usage: 
                TLS Web Server Authentication
            X509v3 Key Usage: 
                Digital Signature, Key Encipherment
            X509v3 Subject Alternative Name: 
                DNS:server
    Signature Algorithm: sha256WithRSAEncryption
         83:81:15:5f:2f:1b:0e:53:f1:0d:a5:d6:3c:07:bf:19:f7:ea:
         13:4b:56:d7:3e:99:c9:5a:0a:8c:4b:43:95:c3:a7:b5:38:a6:
         3a:26:74:8f:b5:c5:7d:7e:6a:b9:ab:ba:4c:5d:b5:74:95:de:
         0c:81:40:dc:74:eb:32:1f:7f:77:0f:d7:45:22:64:e9:10:57:
         0f:43:84:fa:38:af:f3:6a:83:26:14:8d:db:1a:fa:6b:c6:d7:
         73:e9:f9:df:5b:fc:bd:80:33:9c:78:89:98:a1:47:b1:f6:de:
         98:4d:95:75:2a:13:f1:4e:73:90:b6:6e:92:4a:14:06:02:96:
         ec:94:1c:07:dd:3e:86:10:2d:9e:5d:c3:14:1f:f1:b0:9f:5e:
         09:bd:60:d4:6a:b1:a5:cb:e9:5a:6b:f8:4a:37:69:e1:3f:e9:
         f5:9b:d3:3d:0e:18:cf:b9:62:bd:fb:c0:2b:8d:29:7b:e1:ac:
         bb:33:ff:60:80:bb:b5:64:4d:9c:3f:e5:7e:cd:81:1b:41:7c:
         8e:92:f1:13:f4:84:d4:96:24:ad:ef:26:ed:e6:c7:b2:f2:a8:
         b4:1c:89:6c:0a:a6:70:b1:be:5a:90:94:9f:0e:fa:21:fb:d6:
         2d:f1:59:ee:12:09:06:b1:3a:30:3b:e8:83:e4:e8:d6:60:e6:
         7d:71:93:c2
-----BEGIN CERTIFICATE-----
MIIDZDCCAkygAwIBAgIQCJKicc88smjwMOD91Io+qDANBgkqhkiG9w0BAQsFADAa
MRgwFgYDVQQDDA9zbGF2LWNsaWVudC12cG4wHhcNMTkxMTE4MDY1MzI3WhcNMjIx
MTAyMDY1MzI3WjARMQ8wDQYDVQQDDAZzZXJ2ZXIwggEiMA0GCSqGSIb3DQEBAQUA
A4IBDwAwggEKAoIBAQDMiXeIM93OE8kdE5zRP5POIGg5a48vw96ZmRZUqnvJl9tn
xpQpBi0NwM7u2K1fKP5q2XEj1AalV7lzslSS9swVTbkCha1NOW2XBA+CU3FWjw+f
Xt0QhxILHgAE2SxdZ0AfSeNrVx4WFYqCVdYNxhtJjOiB1h87QoSMLE61AOc3FaGf
XRS7sVyJ5dTls71M/3u/H9MRHlkD+wadG76Jx5StYkRgQtOY68rsBpVnBB5wzGlu
Y08iijE+hLg1aBrSgmUsqLG7MFlKPMzjyOfS2GAeCE+4uS0eWiC/YT5xf1uH+wTG
8Z47r126FL9tDnOFPUqKezZyo72m3KaQumVFzijRAgMBAAGjga4wgaswCQYDVR0T
BAIwADAdBgNVHQ4EFgQUyYHdb9ZJ2p+6pVHKdAWj8wxkij8wSgYDVR0jBEMwQYAU
rV5bI5Q4VC4PyQuGG/cc57TS8wWhHqQcMBoxGDAWBgNVBAMMD3NsYXYtY2xpZW50
LXZwboIJAKNbWntcmQEeMBMGA1UdJQQMMAoGCCsGAQUFBwMBMAsGA1UdDwQEAwIF
oDARBgNVHREECjAIggZzZXJ2ZXIwDQYJKoZIhvcNAQELBQADggEBAIOBFV8vGw5T
8Q2l1jwHvxn36hNLVtc+mclaCoxLQ5XDp7U4pjomdI+1xX1+armrukxdtXSV3gyB
QNx06zIff3cP10UiZOkQVw9DhPo4r/NqgyYUjdsa+mvG13Pp+d9b/L2AM5x4iZih
R7H23phNlXUqE/FOc5C2bpJKFAYCluyUHAfdPoYQLZ5dwxQf8bCfXgm9YNRqsaXL
6Vpr+Eo3aeE/6fWb0z0OGM+5Yr37wCuNKXvhrLsz/2CAu7VkTZw/5X7NgRtBfI6S
8RP0hNSWJK3vJu3mx7LyqLQciWwKpnCxvlqQlJ8O+iH71i3xWe4SCQaxOjA76IPk
6NZg5n1xk8I=
-----END CERTIFICATE-----
